; ModuleID = '1/14.c'
source_filename = "1/14.c"
target datalayout = "e-m:e-p270:32:32-p271:32:32-p272:64:64-i64:64-f80:128-n8:16:32:64-S128"
target triple = "x86_64-pc-linux-gnu"

@.str = private unnamed_addr constant [3 x i8] c"%d\00", align 1
@.str.1 = private unnamed_addr constant [4 x i8] c"%d\0A\00", align 1

; Function Attrs: noinline nounwind uwtable
define dso_local void @main() #0 {
  %1 = alloca [100 x i32], align 16
  %2 = alloca i32, align 4
  %3 = alloca i32, align 4
  %4 = alloca i32, align 4
  %5 = call i32 (i8*, ...) @__isoc99_scanf(i8* getelementptr inbounds ([3 x i8], [3 x i8]* @.str, i64 0, i64 0), i32* %4)
  store i32 0, i32* %3, align 4
  br label %6

6:                                                ; preds = %15, %0
  %7 = load i32, i32* %3, align 4
  %8 = load i32, i32* %4, align 4
  %9 = icmp slt i32 %7, %8
  br i1 %9, label %10, label %18

10:                                               ; preds = %6
  %11 = load i32, i32* %3, align 4
  %12 = sext i32 %11 to i64
  %13 = getelementptr inbounds [100 x i32], [100 x i32]* %1, i64 0, i64 %12
  %14 = call i32 (i8*, ...) @__isoc99_scanf(i8* getelementptr inbounds ([3 x i8], [3 x i8]* @.str, i64 0, i64 0), i32* %13)
  br label %15

15:                                               ; preds = %10
  %16 = load i32, i32* %3, align 4
  %17 = add nsw i32 %16, 1
  store i32 %17, i32* %3, align 4
  br label %6

18:                                               ; preds = %6
  store i32 0, i32* %3, align 4
  br label %19

19:                                               ; preds = %32, %18
  %20 = load i32, i32* %3, align 4
  %21 = load i32, i32* %4, align 4
  %22 = icmp slt i32 %20, %21
  br i1 %22, label %23, label %35

23:                                               ; preds = %19
  %24 = load i32, i32* %3, align 4
  %25 = sext i32 %24 to i64
  %26 = getelementptr inbounds [100 x i32], [100 x i32]* %1, i64 0, i64 %25
  %27 = load i32, i32* %26, align 4
  %28 = call i32 @f(i32 1, i32 %27)
  %29 = add nsw i32 %28, 1
  store i32 %29, i32* %2, align 4
  %30 = load i32, i32* %2, align 4
  %31 = call i32 (i8*, ...) @printf(i8* getelementptr inbounds ([4 x i8], [4 x i8]* @.str.1, i64 0, i64 0), i32 %30)
  br label %32

32:                                               ; preds = %23
  %33 = load i32, i32* %3, align 4
  %34 = add nsw i32 %33, 1
  store i32 %34, i32* %3, align 4
  br label %19

35:                                               ; preds = %19
  ret void
}

declare dso_local i32 @__isoc99_scanf(i8*, ...) #1

; Function Attrs: noinline nounwind uwtable
define dso_local i32 @f(i32 %0, i32 %1) #0 {
  %3 = alloca i32, align 4
  %4 = alloca i32, align 4
  %5 = alloca i32, align 4
  %6 = alloca i32, align 4
  %7 = alloca i32, align 4
  store i32 %0, i32* %3, align 4
  store i32 %1, i32* %4, align 4
  store i32 0, i32* %7, align 4
  %8 = load i32, i32* %3, align 4
  store i32 %8, i32* %5, align 4
  br label %9

9:                                                ; preds = %46, %2
  %10 = load i32, i32* %5, align 4
  %11 = load i32, i32* %4, align 4
  %12 = sitofp i32 %11 to double
  %13 = call double @sqrt(double %12) #3
  %14 = fptosi double %13 to i32
  %15 = add nsw i32 %14, 1
  %16 = icmp slt i32 %10, %15
  br i1 %16, label %17, label %49

17:                                               ; preds = %9
  %18 = load i32, i32* %7, align 4
  store i32 %18, i32* %6, align 4
  %19 = load i32, i32* %5, align 4
  %20 = icmp eq i32 %19, 1
  br i1 %20, label %21, label %22

21:                                               ; preds = %17
  store i32 0, i32* %7, align 4
  br label %42

22:                                               ; preds = %17
  %23 = load i32, i32* %4, align 4
  %24 = load i32, i32* %5, align 4
  %25 = srem i32 %23, %24
  %26 = icmp eq i32 %25, 0
  br i1 %26, label %27, label %40

27:                                               ; preds = %22
  %28 = load i32, i32* %4, align 4
  %29 = load i32, i32* %5, align 4
  %30 = sdiv i32 %28, %29
  %31 = load i32, i32* %5, align 4
  %32 = icmp sge i32 %30, %31
  br i1 %32, label %33, label %40

33:                                               ; preds = %27
  %34 = load i32, i32* %5, align 4
  %35 = load i32, i32* %4, align 4
  %36 = load i32, i32* %5, align 4
  %37 = sdiv i32 %35, %36
  %38 = call i32 @f(i32 %34, i32 %37)
  %39 = add nsw i32 %38, 1
  store i32 %39, i32* %7, align 4
  br label %41

40:                                               ; preds = %27, %22
  store i32 0, i32* %7, align 4
  br label %41

41:                                               ; preds = %40, %33
  br label %42

42:                                               ; preds = %41, %21
  %43 = load i32, i32* %7, align 4
  %44 = load i32, i32* %6, align 4
  %45 = add nsw i32 %43, %44
  store i32 %45, i32* %7, align 4
  br label %46

46:                                               ; preds = %42
  %47 = load i32, i32* %5, align 4
  %48 = add nsw i32 %47, 1
  store i32 %48, i32* %5, align 4
  br label %9

49:                                               ; preds = %9
  %50 = load i32, i32* %7, align 4
  ret i32 %50
}

declare dso_local i32 @printf(i8*, ...) #1

; Function Attrs: nounwind
declare dso_local double @sqrt(double) #2


!llvm.module.flags = !{!0}
!llvm.ident = !{!1}

!0 = !{i32 1, !"wchar_size", i32 4}
!1 = !{!"clang version 10.0.0-4ubuntu1 "}
